; Function Attrs: mustprogress uwtable
define void @_ZNK10open_spiel2go7GoState14ActionToStringB5cxx11Eil(ptr dead_on_unwind noalias writable sret(%"class.std::__cxx11::basic_string") align 8 %0, ptr noundef nonnull readonly align 8 captures(none) dereferenceable(8110) %1, i32 noundef %2, i64 noundef %3) unnamed_addr #3 align 2 personality ptr @__gxx_personality_v0 {
  %5 = alloca %"class.absl::debian2::AlphaNum", align 8
  %6 = alloca %"class.std::__cxx11::basic_string", align 8
  %7 = alloca %"class.absl::debian2::AlphaNum", align 8
  %8 = alloca %"class.absl::debian2::AlphaNum", align 8
  %9 = alloca %"class.std::__cxx11::basic_string", align 8
  %10 = trunc i32 %2 to i8
  call void @_ZN10open_spiel2go15GoColorToStringB5cxx11ENS0_7GoColorE(ptr dead_on_unwind nonnull writable sret(%"class.std::__cxx11::basic_string") align 8 %6, i8 noundef zeroext %10)
  %11 = call noundef ptr @_ZNKSt7__cxx1112basic_stringIcSt11char_traitsIcESaIcEE4dataEv(ptr noundef nonnull align 8 dereferenceable(32) %6) #24
  %12 = call noundef i64 @_ZNKSt7__cxx1112basic_stringIcSt11char_traitsIcESaIcEE4sizeEv(ptr noundef nonnull align 8 dereferenceable(32) %6) #24
  store ptr %11, ptr %5, align 8
  %13 = icmp sgt i64 %12, -1
  br i1 %13, label %_ZN4absl7debian28AlphaNumC2ISaIcEEERKNSt7__cxx1112basic_stringIcSt11char_traitsIcET_EE.exit, label %14

14:                                               ; preds = %4
  call void @llvm.trap()
  unreachable

_ZN4absl7debian28AlphaNumC2ISaIcEEERKNSt7__cxx1112basic_stringIcSt11char_traitsIcET_EE.exit: ; preds = %4
  %15 = getelementptr inbounds nuw i8, ptr %5, i64 8
  store i64 %12, ptr %15, align 8
  store ptr @.str.11, ptr %7, align 8
  %16 = getelementptr inbounds nuw i8, ptr %7, i64 8
  store i64 1, ptr %16, align 8
  %17 = getelementptr inbounds nuw i8, ptr %1, i64 8024
  %18 = load i32, ptr %17, align 8
  %19 = invoke noundef i32 @_ZN10open_spiel2go21ActionToVirtualActionEli(i64 noundef %3, i32 noundef %18)
          to label %_ZNK10open_spiel2go7GoBoard21ActionToVirtualActionEl.exit unwind label %28

_ZNK10open_spiel2go7GoBoard21ActionToVirtualActionEl.exit: ; preds = %_ZN4absl7debian28AlphaNumC2ISaIcEEERKNSt7__cxx1112basic_stringIcSt11char_traitsIcET_EE.exit
  %20 = trunc i32 %19 to i16
  invoke void @_ZN10open_spiel2go20VirtualPointToStringB5cxx11Et(ptr dead_on_unwind nonnull writable sret(%"class.std::__cxx11::basic_string") align 8 %9, i16 noundef zeroext %20)
          to label %21 unwind label %28

21:                                               ; preds = %_ZNK10open_spiel2go7GoBoard21ActionToVirtualActionEl.exit
  %22 = call noundef ptr @_ZNKSt7__cxx1112basic_stringIcSt11char_traitsIcESaIcEE4dataEv(ptr noundef nonnull align 8 dereferenceable(32) %9) #24
  %23 = call noundef i64 @_ZNKSt7__cxx1112basic_stringIcSt11char_traitsIcESaIcEE4sizeEv(ptr noundef nonnull align 8 dereferenceable(32) %9) #24
  store ptr %22, ptr %8, align 8
  %24 = icmp sgt i64 %23, -1
  br i1 %24, label %_ZN4absl7debian28AlphaNumC2ISaIcEEERKNSt7__cxx1112basic_stringIcSt11char_traitsIcET_EE.exit6, label %25

25:                                               ; preds = %21
  call void @llvm.trap()
  unreachable

_ZN4absl7debian28AlphaNumC2ISaIcEEERKNSt7__cxx1112basic_stringIcSt11char_traitsIcET_EE.exit6: ; preds = %21
  %26 = getelementptr inbounds nuw i8, ptr %8, i64 8
  store i64 %23, ptr %26, align 8
  invoke void @_ZN4absl7debian26StrCatB5cxx11ERKNS0_8AlphaNumES3_S3_(ptr dead_on_unwind writable sret(%"class.std::__cxx11::basic_string") align 8 %0, ptr noundef nonnull align 8 dereferenceable(48) %5, ptr noundef nonnull align 8 dereferenceable(48) %7, ptr noundef nonnull align 8 dereferenceable(48) %8)
          to label %27 unwind label %30

27:                                               ; preds = %_ZN4absl7debian28AlphaNumC2ISaIcEEERKNSt7__cxx1112basic_stringIcSt11char_traitsIcET_EE.exit6
  call void @_ZNSt7__cxx1112basic_stringIcSt11char_traitsIcESaIcEED1Ev(ptr noundef nonnull align 8 dereferenceable(32) %9) #24
  call void @_ZNSt7__cxx1112basic_stringIcSt11char_traitsIcESaIcEED1Ev(ptr noundef nonnull align 8 dereferenceable(32) %6) #24
  ret void

28:                                               ; preds = %_ZN4absl7debian28AlphaNumC2ISaIcEEERKNSt7__cxx1112basic_stringIcSt11char_traitsIcET_EE.exit, %_ZNK10open_spiel2go7GoBoard21ActionToVirtualActionEl.exit
  %29 = landingpad { ptr, i32 }
          cleanup
  br label %32

30:                                               ; preds = %_ZN4absl7debian28AlphaNumC2ISaIcEEERKNSt7__cxx1112basic_stringIcSt11char_traitsIcET_EE.exit6
  %31 = landingpad { ptr, i32 }
          cleanup
  call void @_ZNSt7__cxx1112basic_stringIcSt11char_traitsIcESaIcEED1Ev(ptr noundef nonnull align 8 dereferenceable(32) %9) #24
  br label %32

32:                                               ; preds = %30, %28
  %.pn = phi { ptr, i32 } [ %31, %30 ], [ %29, %28 ]
  call void @_ZNSt7__cxx1112basic_stringIcSt11char_traitsIcESaIcEED1Ev(ptr noundef nonnull align 8 dereferenceable(32) %6) #24
  resume { ptr, i32 } %.pn
}